target datalayout = "e-m:e-p270:32:32-p271:32:32-p272:64:64-i64:64-i128:128-f80:128-n8:16:32:64-S128"
target triple = "x86_64-pc-linux-gnu"

%struct.nameData = type { [64 x i8] }
%struct.FormData_pg_attribute = type { i32, %struct.nameData, i32, i16, i16, i32, i16, i8, i8, i8, i8, i8, i8, i8, i8, i8, i8, i8, i16, i32 }
%struct.TupleDescData = type { i32, i32, i32, i32, ptr, [0 x %struct.CompactAttribute] }
%struct.CompactAttribute = type { i32, i16, i8, i8, i8, i8, i8, i8, i8 }

@.str.1 = private unnamed_addr constant [7 x i8] c"heap.c\00", align 1
@SysAtt = internal constant [6 x ptr] [ptr @a1, ptr @a2, ptr @a3, ptr @a4, ptr @a5, ptr @a6], align 16
@.str.4 = private unnamed_addr constant [35 x i8] c"tables can have at most %d columns\00", align 1
@__func__.CheckAttributeNamesTypes = private unnamed_addr constant [25 x i8] c"CheckAttributeNamesTypes\00", align 1
@.str.5 = private unnamed_addr constant [53 x i8] c"column name \22%s\22 conflicts with a system column name\00", align 1
@.str.6 = private unnamed_addr constant [42 x i8] c"column name \22%s\22 specified more than once\00", align 1

; Function Attrs: nounwind uwtable
define dso_local ptr @SystemAttributeByName(ptr noundef %0) #0 {
  %2 = alloca ptr, align 8
  %3 = alloca ptr, align 8
  %4 = alloca i32, align 4
  %5 = alloca ptr, align 8
  %6 = alloca i32, align 4
  store ptr %0, ptr %3, align 8
  call void @llvm.lifetime.start.p0(i64 4, ptr %4) #10
  store i32 0, ptr %4, align 4
  br label %7

7:                                                ; preds = %28, %1
  %8 = load i32, ptr %4, align 4
  %9 = icmp slt i32 %8, 6
  br i1 %9, label %10, label %31

10:                                               ; preds = %7
  call void @llvm.lifetime.start.p0(i64 8, ptr %5) #10
  %11 = load i32, ptr %4, align 4
  %12 = sext i32 %11 to i64
  %13 = getelementptr inbounds [6 x ptr], ptr @SysAtt, i64 0, i64 %12
  %14 = load ptr, ptr %13, align 8
  store ptr %14, ptr %5, align 8
  %15 = load ptr, ptr %5, align 8
  %16 = getelementptr inbounds nuw %struct.FormData_pg_attribute, ptr %15, i32 0, i32 1
  %17 = getelementptr inbounds nuw %struct.nameData, ptr %16, i32 0, i32 0
  %18 = getelementptr inbounds [64 x i8], ptr %17, i64 0, i64 0
  %19 = load ptr, ptr %3, align 8
  %20 = call i32 @strcmp(ptr noundef %18, ptr noundef %19) #11
  %21 = icmp eq i32 %20, 0
  br i1 %21, label %22, label %24

22:                                               ; preds = %10
  %23 = load ptr, ptr %5, align 8
  store ptr %23, ptr %2, align 8
  store i32 1, ptr %6, align 4
  br label %25

24:                                               ; preds = %10
  store i32 0, ptr %6, align 4
  br label %25

25:                                               ; preds = %24, %22
  call void @llvm.lifetime.end.p0(i64 8, ptr %5) #10
  %26 = load i32, ptr %6, align 4
  switch i32 %26, label %32 [
    i32 0, label %27
  ]

27:                                               ; preds = %25
  br label %28

28:                                               ; preds = %27
  %29 = load i32, ptr %4, align 4
  %30 = add i32 %29, 1
  store i32 %30, ptr %4, align 4
  br label %7, !llvm.loop !4

31:                                               ; preds = %7
  store ptr null, ptr %2, align 8
  store i32 1, ptr %6, align 4
  br label %32

32:                                               ; preds = %31, %25
  call void @llvm.lifetime.end.p0(i64 4, ptr %4) #10
  %33 = load ptr, ptr %2, align 8
  ret ptr %33
}

; Function Attrs: inlinehint nounwind uwtable
define internal ptr @TupleDescAttr(ptr noundef %0, i32 noundef %1) #5 {
  %3 = alloca ptr, align 8
  %4 = alloca i32, align 4
  %5 = alloca ptr, align 8
  store ptr %0, ptr %3, align 8
  store i32 %1, ptr %4, align 4
  call void @llvm.lifetime.start.p0(i64 8, ptr %5) #10
  %6 = load ptr, ptr %3, align 8
  %7 = load ptr, ptr %3, align 8
  %8 = getelementptr inbounds nuw %struct.TupleDescData, ptr %7, i32 0, i32 0
  %9 = load i32, ptr %8, align 8
  %10 = sext i32 %9 to i64
  %11 = mul i64 %10, 16
  %12 = add i64 24, %11
  %13 = getelementptr inbounds nuw i8, ptr %6, i64 %12
  store ptr %13, ptr %5, align 8
  %14 = load ptr, ptr %5, align 8
  %15 = load i32, ptr %4, align 4
  %16 = sext i32 %15 to i64
  %17 = getelementptr inbounds %struct.FormData_pg_attribute, ptr %14, i64 %16
  call void @llvm.lifetime.end.p0(i64 8, ptr %5) #10
  ret ptr %17
}

; Function Attrs: nounwind uwtable
define dso_local void @CheckAttributeNamesTypes(ptr noundef %0, i8 noundef signext %1, i32 noundef %2) #0 {
  %4 = alloca ptr, align 8
  %5 = alloca i8, align 1
  %6 = alloca i32, align 4
  %7 = alloca i32, align 4
  %8 = alloca i32, align 4
  %9 = alloca i32, align 4
  %10 = alloca ptr, align 8
  store ptr %0, ptr %4, align 8
  store i8 %1, ptr %5, align 1
  store i32 %2, ptr %6, align 4
  call void @llvm.lifetime.start.p0(i64 4, ptr %7) #10
  call void @llvm.lifetime.start.p0(i64 4, ptr %8) #10
  call void @llvm.lifetime.start.p0(i64 4, ptr %9) #10
  %11 = load ptr, ptr %4, align 8
  %12 = getelementptr inbounds nuw %struct.TupleDescData, ptr %11, i32 0, i32 0
  %13 = load i32, ptr %12, align 8
  store i32 %13, ptr %9, align 4
  %14 = load i32, ptr %9, align 4
  %15 = icmp slt i32 %14, 0
  br i1 %15, label %19, label %16

16:                                               ; preds = %3
  %17 = load i32, ptr %9, align 4
  %18 = icmp sgt i32 %17, 1600
  br i1 %18, label %19, label %31

19:                                               ; preds = %16, %3
  br label %20

20:                                               ; preds = %19
  br i1 true, label %21, label %23

21:                                               ; preds = %20
  %22 = call zeroext i1 @errstart_cold(i32 noundef 21, ptr noundef null) #9
  br i1 %22, label %25, label %28

23:                                               ; preds = %20
  %24 = call zeroext i1 @errstart(i32 noundef 21, ptr noundef null)
  br i1 %24, label %25, label %28

25:                                               ; preds = %23, %21
  %26 = call i32 @errcode(i32 noundef 17039621)
  %27 = call i32 (ptr, ...) @errmsg(ptr noundef @.str.4, i32 noundef 1600)
  call void @errfinish(ptr noundef @.str.1, i32 noundef 463, ptr noundef @__func__.CheckAttributeNamesTypes)
  br label %28

28:                                               ; preds = %25, %23, %21
  unreachable

29:                                               ; No predecessors!
  br label %30

30:                                               ; preds = %29
  br label %31

31:                                               ; preds = %30, %16
  %32 = load i8, ptr %5, align 1
  %33 = sext i8 %32 to i32
  %34 = icmp ne i32 %33, 118
  br i1 %34, label %35, label %75

35:                                               ; preds = %31
  %36 = load i8, ptr %5, align 1
  %37 = sext i8 %36 to i32
  %38 = icmp ne i32 %37, 99
  br i1 %38, label %39, label %75

39:                                               ; preds = %35
  store i32 0, ptr %7, align 4
  br label %40

40:                                               ; preds = %71, %39
  %41 = load i32, ptr %7, align 4
  %42 = load i32, ptr %9, align 4
  %43 = icmp slt i32 %41, %42
  br i1 %43, label %44, label %74

44:                                               ; preds = %40
  call void @llvm.lifetime.start.p0(i64 8, ptr %10) #10
  %45 = load ptr, ptr %4, align 8
  %46 = load i32, ptr %7, align 4
  %47 = call ptr @TupleDescAttr(ptr noundef %45, i32 noundef %46)
  store ptr %47, ptr %10, align 8
  %48 = load ptr, ptr %10, align 8
  %49 = getelementptr inbounds nuw %struct.FormData_pg_attribute, ptr %48, i32 0, i32 1
  %50 = getelementptr inbounds nuw %struct.nameData, ptr %49, i32 0, i32 0
  %51 = getelementptr inbounds [64 x i8], ptr %50, i64 0, i64 0
  %52 = call ptr @SystemAttributeByName(ptr noundef %51)
  %53 = icmp ne ptr %52, null
  br i1 %53, label %54, label %70

54:                                               ; preds = %44
  br label %55

55:                                               ; preds = %54
  br i1 true, label %56, label %58

56:                                               ; preds = %55
  %57 = call zeroext i1 @errstart_cold(i32 noundef 21, ptr noundef null) #9
  br i1 %57, label %60, label %67

58:                                               ; preds = %55
  %59 = call zeroext i1 @errstart(i32 noundef 21, ptr noundef null)
  br i1 %59, label %60, label %67

60:                                               ; preds = %58, %56
  %61 = call i32 @errcode(i32 noundef 16806020)
  %62 = load ptr, ptr %10, align 8
  %63 = getelementptr inbounds nuw %struct.FormData_pg_attribute, ptr %62, i32 0, i32 1
  %64 = getelementptr inbounds nuw %struct.nameData, ptr %63, i32 0, i32 0
  %65 = getelementptr inbounds [64 x i8], ptr %64, i64 0, i64 0
  %66 = call i32 (ptr, ...) @errmsg(ptr noundef @.str.5, ptr noundef %65)
  call void @errfinish(ptr noundef @.str.1, i32 noundef 481, ptr noundef @__func__.CheckAttributeNamesTypes)
  br label %67

67:                                               ; preds = %60, %58, %56
  unreachable

68:                                               ; No predecessors!
  br label %69

69:                                               ; preds = %68
  br label %70

70:                                               ; preds = %69, %44
  call void @llvm.lifetime.end.p0(i64 8, ptr %10) #10
  br label %71

71:                                               ; preds = %70
  %72 = load i32, ptr %7, align 4
  %73 = add i32 %72, 1
  store i32 %73, ptr %7, align 4
  br label %40, !llvm.loop !8

74:                                               ; preds = %40
  br label %75

75:                                               ; preds = %74, %35, %31
  store i32 1, ptr %7, align 4
  br label %76

76:                                               ; preds = %123, %75
  %77 = load i32, ptr %7, align 4
  %78 = load i32, ptr %9, align 4
  %79 = icmp slt i32 %77, %78
  br i1 %79, label %80, label %126

80:                                               ; preds = %76
  store i32 0, ptr %8, align 4
  br label %81

81:                                               ; preds = %119, %80
  %82 = load i32, ptr %8, align 4
  %83 = load i32, ptr %7, align 4
  %84 = icmp slt i32 %82, %83
  br i1 %84, label %85, label %122

85:                                               ; preds = %81
  %86 = load ptr, ptr %4, align 8
  %87 = load i32, ptr %8, align 4
  %88 = call ptr @TupleDescAttr(ptr noundef %86, i32 noundef %87)
  %89 = getelementptr inbounds nuw %struct.FormData_pg_attribute, ptr %88, i32 0, i32 1
  %90 = getelementptr inbounds nuw %struct.nameData, ptr %89, i32 0, i32 0
  %91 = getelementptr inbounds [64 x i8], ptr %90, i64 0, i64 0
  %92 = load ptr, ptr %4, align 8
  %93 = load i32, ptr %7, align 4
  %94 = call ptr @TupleDescAttr(ptr noundef %92, i32 noundef %93)
  %95 = getelementptr inbounds nuw %struct.FormData_pg_attribute, ptr %94, i32 0, i32 1
  %96 = getelementptr inbounds nuw %struct.nameData, ptr %95, i32 0, i32 0
  %97 = getelementptr inbounds [64 x i8], ptr %96, i64 0, i64 0
  %98 = call i32 @strcmp(ptr noundef %91, ptr noundef %97) #11
  %99 = icmp eq i32 %98, 0
  br i1 %99, label %100, label %118

100:                                              ; preds = %85
  br label %101

101:                                              ; preds = %100
  br i1 true, label %102, label %104

102:                                              ; preds = %101
  %103 = call zeroext i1 @errstart_cold(i32 noundef 21, ptr noundef null) #9
  br i1 %103, label %106, label %115

104:                                              ; preds = %101
  %105 = call zeroext i1 @errstart(i32 noundef 21, ptr noundef null)
  br i1 %105, label %106, label %115

106:                                              ; preds = %104, %102
  %107 = call i32 @errcode(i32 noundef 16806020)
  %108 = load ptr, ptr %4, align 8
  %109 = load i32, ptr %8, align 4
  %110 = call ptr @TupleDescAttr(ptr noundef %108, i32 noundef %109)
  %111 = getelementptr inbounds nuw %struct.FormData_pg_attribute, ptr %110, i32 0, i32 1
  %112 = getelementptr inbounds nuw %struct.nameData, ptr %111, i32 0, i32 0
  %113 = getelementptr inbounds [64 x i8], ptr %112, i64 0, i64 0
  %114 = call i32 (ptr, ...) @errmsg(ptr noundef @.str.6, ptr noundef %113)
  call void @errfinish(ptr noundef @.str.1, i32 noundef 497, ptr noundef @__func__.CheckAttributeNamesTypes)
  br label %115

115:                                              ; preds = %106, %104, %102
  unreachable

116:                                              ; No predecessors!
  br label %117

117:                                              ; preds = %116
  br label %118

118:                                              ; preds = %117, %85
  br label %119

119:                                              ; preds = %118
  %120 = load i32, ptr %8, align 4
  %121 = add i32 %120, 1
  store i32 %121, ptr %8, align 4
  br label %81, !llvm.loop !9

122:                                              ; preds = %81
  br label %123

123:                                              ; preds = %122
  %124 = load i32, ptr %7, align 4
  %125 = add i32 %124, 1
  store i32 %125, ptr %7, align 4
  br label %76, !llvm.loop !10

126:                                              ; preds = %76
  store i32 0, ptr %7, align 4
  br label %127

127:                                              ; preds = %158, %126
  %128 = load i32, ptr %7, align 4
  %129 = load i32, ptr %9, align 4
  %130 = icmp slt i32 %128, %129
  br i1 %130, label %131, label %161

131:                                              ; preds = %127
  %132 = load ptr, ptr %4, align 8
  %133 = load i32, ptr %7, align 4
  %134 = call ptr @TupleDescAttr(ptr noundef %132, i32 noundef %133)
  %135 = getelementptr inbounds nuw %struct.FormData_pg_attribute, ptr %134, i32 0, i32 1
  %136 = getelementptr inbounds nuw %struct.nameData, ptr %135, i32 0, i32 0
  %137 = getelementptr inbounds [64 x i8], ptr %136, i64 0, i64 0
  %138 = load ptr, ptr %4, align 8
  %139 = load i32, ptr %7, align 4
  %140 = call ptr @TupleDescAttr(ptr noundef %138, i32 noundef %139)
  %141 = getelementptr inbounds nuw %struct.FormData_pg_attribute, ptr %140, i32 0, i32 2
  %142 = load i32, ptr %141, align 4
  %143 = load ptr, ptr %4, align 8
  %144 = load i32, ptr %7, align 4
  %145 = call ptr @TupleDescAttr(ptr noundef %143, i32 noundef %144)
  %146 = getelementptr inbounds nuw %struct.FormData_pg_attribute, ptr %145, i32 0, i32 19
  %147 = load i32, ptr %146, align 4
  %148 = load i32, ptr %6, align 4
  %149 = load ptr, ptr %4, align 8
  %150 = load i32, ptr %7, align 4
  %151 = call ptr @TupleDescAttr(ptr noundef %149, i32 noundef %150)
  %152 = getelementptr inbounds nuw %struct.FormData_pg_attribute, ptr %151, i32 0, i32 15
  %153 = load i8, ptr %152, align 2
  %154 = sext i8 %153 to i32
  %155 = icmp eq i32 %154, 118
  %156 = select i1 %155, i32 8, i32 0
  %157 = or i32 %148, %156
  call void @CheckAttributeType(ptr noundef %137, i32 noundef %142, i32 noundef %147, ptr noundef null, i32 noundef %157)
  br label %158

158:                                              ; preds = %131
  %159 = load i32, ptr %7, align 4
  %160 = add i32 %159, 1
  store i32 %160, ptr %7, align 4
  br label %127, !llvm.loop !11

161:                                              ; preds = %127
  call void @llvm.lifetime.end.p0(i64 4, ptr %9) #10
  call void @llvm.lifetime.end.p0(i64 4, ptr %8) #10
  call void @llvm.lifetime.end.p0(i64 4, ptr %7) #10
  ret void
}