; Function Attrs: nounwind uwtable
define dso_local void @CheckAttributeNamesTypes(ptr noundef %0, i8 noundef signext %1, i32 noundef %2) local_unnamed_addr #0 {
  %4 = load i32, ptr %0, align 8
  %or.cond = icmp ugt i32 %4, 1600
  br i1 %or.cond, label %5, label %9

5:                                                ; preds = %3
  %6 = tail call zeroext i1 @errstart_cold(i32 noundef 21, ptr noundef null) #10
  tail call void @llvm.assume(i1 %6)
  %7 = tail call i32 @errcode(i32 noundef 17039621) #11
  %8 = tail call i32 (ptr, ...) @errmsg(ptr noundef nonnull @.str.4, i32 noundef 1600) #11
  tail call void @errfinish(ptr noundef nonnull @.str.1, i32 noundef 463, ptr noundef nonnull @__func__.CheckAttributeNamesTypes) #11
  unreachable

9:                                                ; preds = %3
  switch i8 %1, label %.preheader47 [
    i8 118, label %.loopexit
    i8 99, label %.loopexit
  ]

.preheader47:                                     ; preds = %9
  %.not = icmp eq i32 %4, 0
  br i1 %.not, label %._crit_edge, label %.lr.ph

.lr.ph:                                           ; preds = %.preheader47
  %invariant.gep = getelementptr i8, ptr %0, i64 28
  %10 = shl nuw nsw i32 %4, 4
  %11 = zext nneg i32 %10 to i64
  %gep = getelementptr i8, ptr %invariant.gep, i64 %11
  %wide.trip.count = zext nneg i32 %4 to i64
  br label %12

12:                                               ; preds = %.lr.ph, %23
  %indvars.iv = phi i64 [ 0, %.lr.ph ], [ %indvars.iv.next, %23 ]
  %.idx45 = mul nuw nsw i64 %indvars.iv, 100
  %13 = getelementptr i8, ptr %gep, i64 %.idx45
  br label %15

14:                                               ; preds = %15
  %indvars.iv.next.i = add nuw nsw i64 %indvars.iv.i, 1
  %exitcond.not.i = icmp eq i64 %indvars.iv.next.i, 6
  br i1 %exitcond.not.i, label %23, label %15, !llvm.loop !4

15:                                               ; preds = %14, %12
  %indvars.iv.i = phi i64 [ 0, %12 ], [ %indvars.iv.next.i, %14 ]
  %16 = getelementptr inbounds nuw [6 x ptr], ptr @SysAtt, i64 0, i64 %indvars.iv.i
  %17 = load ptr, ptr %16, align 8
  %18 = getelementptr inbounds nuw i8, ptr %17, i64 4
  %19 = tail call i32 @strcmp(ptr noundef nonnull dereferenceable(1) %18, ptr noundef nonnull readonly dereferenceable(1) %13) #12
  %.not.i = icmp eq i32 %19, 0
  br i1 %.not.i, label %SystemAttributeByName.exit, label %14

SystemAttributeByName.exit:                       ; preds = %15
  %20 = tail call zeroext i1 @errstart_cold(i32 noundef 21, ptr noundef null) #10
  tail call void @llvm.assume(i1 %20)
  %21 = tail call i32 @errcode(i32 noundef 16806020) #11
  %22 = tail call i32 (ptr, ...) @errmsg(ptr noundef nonnull @.str.5, ptr noundef nonnull %13) #11
  tail call void @errfinish(ptr noundef nonnull @.str.1, i32 noundef 481, ptr noundef nonnull @__func__.CheckAttributeNamesTypes) #11
  unreachable

23:                                               ; preds = %14
  %indvars.iv.next = add nuw nsw i64 %indvars.iv, 1
  %exitcond.not = icmp eq i64 %indvars.iv.next, %wide.trip.count
  br i1 %exitcond.not, label %.loopexit, label %12, !llvm.loop !6

.loopexit:                                        ; preds = %23, %9, %9
  %24 = icmp sgt i32 %4, 1
  br i1 %24, label %.preheader46.lr.ph, label %.preheader

.preheader46.lr.ph:                               ; preds = %.loopexit
  %invariant.gep53 = getelementptr i8, ptr %0, i64 24
  %25 = shl nuw nsw i32 %4, 4
  %26 = zext nneg i32 %25 to i64
  %gep54 = getelementptr i8, ptr %invariant.gep53, i64 %26
  %invariant.gep50 = getelementptr inbounds nuw i8, ptr %gep54, i64 4
  %wide.trip.count75 = zext nneg i32 %4 to i64
  br label %.preheader46

.preheader46:                                     ; preds = %.preheader46.lr.ph, %41
  %indvars.iv72 = phi i64 [ 1, %.preheader46.lr.ph ], [ %indvars.iv.next73, %41 ]
  %.idx43 = mul nuw nsw i64 %indvars.iv72, 100
  %gep57 = getelementptr inbounds nuw i8, ptr %invariant.gep50, i64 %.idx43
  br label %28

.preheader:                                       ; preds = %41, %.loopexit
  %invariant.gep58 = getelementptr i8, ptr %0, i64 24
  %.not62 = icmp eq i32 %4, 0
  br i1 %.not62, label %._crit_edge, label %.lr.ph61.preheader

.lr.ph61.preheader:                               ; preds = %.preheader
  %smax = tail call i32 @llvm.smax.i32(i32 %4, i32 1)
  %wide.trip.count80 = zext nneg i32 %smax to i64
  br label %.lr.ph61

27:                                               ; preds = %28
  %indvars.iv.next68 = add nuw nsw i64 %indvars.iv67, 1
  %exitcond71.not = icmp eq i64 %indvars.iv.next68, %indvars.iv72
  br i1 %exitcond71.not, label %41, label %28, !llvm.loop !7

28:                                               ; preds = %.preheader46, %27
  %indvars.iv67 = phi i64 [ 0, %.preheader46 ], [ %indvars.iv.next68, %27 ]
  %.idx = mul nuw nsw i64 %indvars.iv67, 100
  %gep51 = getelementptr inbounds nuw i8, ptr %invariant.gep50, i64 %.idx
  %29 = tail call i32 @strcmp(ptr noundef nonnull dereferenceable(1) %gep51, ptr noundef nonnull dereferenceable(1) %gep57) #12
  %30 = icmp eq i32 %29, 0
  br i1 %30, label %31, label %27

31:                                               ; preds = %28
  %32 = tail call zeroext i1 @errstart_cold(i32 noundef 21, ptr noundef null) #10
  tail call void @llvm.assume(i1 %32)
  %33 = tail call i32 @errcode(i32 noundef 16806020) #11
  %34 = load i32, ptr %0, align 8
  %35 = sext i32 %34 to i64
  %36 = shl nsw i64 %35, 4
  %37 = getelementptr i8, ptr %0, i64 %36
  %38 = getelementptr i8, ptr %37, i64 28
  %39 = getelementptr i8, ptr %38, i64 %.idx
  %40 = tail call i32 (ptr, ...) @errmsg(ptr noundef nonnull @.str.6, ptr noundef nonnull %39) #11
  tail call void @errfinish(ptr noundef nonnull @.str.1, i32 noundef 497, ptr noundef nonnull @__func__.CheckAttributeNamesTypes) #11
  unreachable

41:                                               ; preds = %27
  %indvars.iv.next73 = add nuw nsw i64 %indvars.iv72, 1
  %exitcond76.not = icmp eq i64 %indvars.iv.next73, %wide.trip.count75
  br i1 %exitcond76.not, label %.preheader, label %.preheader46, !llvm.loop !8

.lr.ph61:                                         ; preds = %.lr.ph61.preheader, %.lr.ph61
  %indvars.iv77 = phi i64 [ 0, %.lr.ph61.preheader ], [ %indvars.iv.next78, %.lr.ph61 ]
  %42 = load i32, ptr %0, align 8
  %43 = sext i32 %42 to i64
  %44 = shl nsw i64 %43, 4
  %gep59 = getelementptr i8, ptr %invariant.gep58, i64 %44
  %45 = getelementptr inbounds nuw %struct.FormData_pg_attribute, ptr %gep59, i64 %indvars.iv77
  %46 = getelementptr inbounds nuw i8, ptr %45, i64 4
  %47 = getelementptr inbounds nuw i8, ptr %45, i64 68
  %48 = load i32, ptr %47, align 4
  %49 = getelementptr inbounds nuw i8, ptr %45, i64 96
  %50 = load i32, ptr %49, align 4
  %51 = getelementptr inbounds nuw i8, ptr %45, i64 90
  %52 = load i8, ptr %51, align 2
  %53 = icmp eq i8 %52, 118
  %54 = select i1 %53, i32 8, i32 0
  %55 = or i32 %54, %2
  tail call void @CheckAttributeType(ptr noundef nonnull %46, i32 noundef %48, i32 noundef %50, ptr noundef null, i32 noundef %55)
  %indvars.iv.next78 = add nuw nsw i64 %indvars.iv77, 1
  %exitcond81.not = icmp eq i64 %indvars.iv.next78, %wide.trip.count80
  br i1 %exitcond81.not, label %._crit_edge, label %.lr.ph61, !llvm.loop !9

._crit_edge:                                      ; preds = %.lr.ph61, %.preheader47, %.preheader
  ret void
}